target datalayout = "e-m:e-p270:32:32-p271:32:32-p272:64:64-i64:64-i128:128-f80:128-n8:16:32:64-S128"
target triple = "x86_64-unknown-linux-gnu"

%struct.__va_list_tag = type { i32, i32, ptr, ptr }

; Function Attrs: mustprogress uwtable
define internal void @_ZN4absl19str_format_internal12_GLOBAL__N_110StrAppendVEPNSt7__cxx1112basic_stringIcSt11char_traitsIcESaIcEEEPKcP13__va_list_tag(ptr noundef %dst, ptr noundef %format, ptr noundef %ap) #4 {
entry:
  %dst.addr = alloca ptr, align 8
  %format.addr = alloca ptr, align 8
  %ap.addr = alloca ptr, align 8
  %space = alloca [1024 x i8], align 16
  %backup_ap = alloca [1 x %struct.__va_list_tag], align 16
  %result = alloca i32, align 4
  %length = alloca i64, align 8
  %buf = alloca ptr, align 8
  store ptr %dst, ptr %dst.addr, align 8
  store ptr %format, ptr %format.addr, align 8
  store ptr %ap, ptr %ap.addr, align 8
  %arraydecay = getelementptr inbounds [1 x %struct.__va_list_tag], ptr %backup_ap, i64 0, i64 0
  %0 = load ptr, ptr %ap.addr, align 8
  call void @llvm.va_copy(ptr %arraydecay, ptr %0)
  %arraydecay1 = getelementptr inbounds [1024 x i8], ptr %space, i64 0, i64 0
  %1 = load ptr, ptr %format.addr, align 8
  %arraydecay2 = getelementptr inbounds [1 x %struct.__va_list_tag], ptr %backup_ap, i64 0, i64 0
  %call = call i32 @vsnprintf(ptr noundef %arraydecay1, i64 noundef 1024, ptr noundef %1, ptr noundef %arraydecay2) #3
  store i32 %call, ptr %result, align 4
  %arraydecay3 = getelementptr inbounds [1 x %struct.__va_list_tag], ptr %backup_ap, i64 0, i64 0
  call void @llvm.va_end(ptr %arraydecay3)
  %2 = load i32, ptr %result, align 4
  %cmp = icmp slt i32 %2, 1024
  br i1 %cmp, label %if.then, label %if.end11

if.then:                                          ; preds = %entry
  %3 = load i32, ptr %result, align 4
  %cmp4 = icmp sge i32 %3, 0
  br i1 %cmp4, label %if.then5, label %if.end

if.then5:                                         ; preds = %if.then
  %4 = load ptr, ptr %dst.addr, align 8
  %arraydecay6 = getelementptr inbounds [1024 x i8], ptr %space, i64 0, i64 0
  %5 = load i32, ptr %result, align 4
  %conv = sext i32 %5 to i64
  %call7 = call noundef nonnull align 8 dereferenceable(32) ptr @_ZNSt7__cxx1112basic_stringIcSt11char_traitsIcESaIcEE6appendEPKcm(ptr noundef nonnull align 8 dereferenceable(32) %4, ptr noundef %arraydecay6, i64 noundef %conv)
  br label %delete.end

if.end:                                           ; preds = %if.then
  %6 = load i32, ptr %result, align 4
  %cmp8 = icmp slt i32 %6, 0
  br i1 %cmp8, label %if.then9, label %if.end10

if.then9:                                         ; preds = %if.end
  br label %delete.end

if.end10:                                         ; preds = %if.end
  br label %if.end11

if.end11:                                         ; preds = %if.end10, %entry
  %7 = load i32, ptr %result, align 4
  %conv12 = sext i32 %7 to i64
  %add = add i64 %conv12, 1
  store i64 %add, ptr %length, align 8
  %8 = load i64, ptr %length, align 8
  %call13 = call noalias noundef nonnull ptr @_Znam(i64 noundef %8) #21
  store ptr %call13, ptr %buf, align 8
  %arraydecay14 = getelementptr inbounds [1 x %struct.__va_list_tag], ptr %backup_ap, i64 0, i64 0
  %9 = load ptr, ptr %ap.addr, align 8
  call void @llvm.va_copy(ptr %arraydecay14, ptr %9)
  %10 = load ptr, ptr %buf, align 8
  %11 = load i64, ptr %length, align 8
  %12 = load ptr, ptr %format.addr, align 8
  %arraydecay15 = getelementptr inbounds [1 x %struct.__va_list_tag], ptr %backup_ap, i64 0, i64 0
  %call16 = call i32 @vsnprintf(ptr noundef %10, i64 noundef %11, ptr noundef %12, ptr noundef %arraydecay15) #3
  store i32 %call16, ptr %result, align 4
  %arraydecay17 = getelementptr inbounds [1 x %struct.__va_list_tag], ptr %backup_ap, i64 0, i64 0
  call void @llvm.va_end(ptr %arraydecay17)
  %13 = load i32, ptr %result, align 4
  %cmp18 = icmp sge i32 %13, 0
  br i1 %cmp18, label %land.lhs.true, label %if.end24

land.lhs.true:                                    ; preds = %if.end11
  %14 = load i32, ptr %result, align 4
  %conv19 = sext i32 %14 to i64
  %15 = load i64, ptr %length, align 8
  %cmp20 = icmp ult i64 %conv19, %15
  br i1 %cmp20, label %if.then21, label %if.end24

if.then21:                                        ; preds = %land.lhs.true
  %16 = load ptr, ptr %dst.addr, align 8
  %17 = load ptr, ptr %buf, align 8
  %18 = load i32, ptr %result, align 4
  %conv22 = sext i32 %18 to i64
  %call23 = call noundef nonnull align 8 dereferenceable(32) ptr @_ZNSt7__cxx1112basic_stringIcSt11char_traitsIcESaIcEE6appendEPKcm(ptr noundef nonnull align 8 dereferenceable(32) %16, ptr noundef %17, i64 noundef %conv22)
  br label %if.end24

if.end24:                                         ; preds = %if.then21, %land.lhs.true, %if.end11
  %19 = load ptr, ptr %buf, align 8
  %isnull = icmp eq ptr %19, null
  br i1 %isnull, label %delete.end, label %delete.notnull

delete.notnull:                                   ; preds = %if.end24
  call void @_ZdaPv(ptr noundef %19) #22
  br label %delete.end

delete.end:                                       ; preds = %delete.notnull, %if.end24, %if.then9, %if.then5
  ret void
}