; Function Attrs: mustprogress uwtable
define internal fastcc void @_ZN4absl19str_format_internal12_GLOBAL__N_110StrAppendVEPNSt7__cxx1112basic_stringIcSt11char_traitsIcESaIcEEEPKcP13__va_list_tag(ptr noundef %dst, ptr nocapture noundef readonly %format, ptr noundef %ap) unnamed_addr #3 {
entry:
  %space = alloca [1024 x i8], align 16
  %backup_ap = alloca [1 x %struct.__va_list_tag], align 16
  call void @llvm.va_copy(ptr nonnull %backup_ap, ptr %ap)
  %call = call i32 @vsnprintf(ptr noundef nonnull %space, i64 noundef 1024, ptr noundef %format, ptr noundef nonnull %backup_ap) #28
  call void @llvm.va_end(ptr nonnull %backup_ap)
  %cmp = icmp slt i32 %call, 1024
  br i1 %cmp, label %if.then, label %if.end11

if.then:                                          ; preds = %entry
  %cmp4 = icmp sgt i32 %call, -1
  br i1 %cmp4, label %if.then5, label %delete.end

if.then5:                                         ; preds = %if.then
  %conv = zext nneg i32 %call to i64
  %call7 = call noundef nonnull align 8 dereferenceable(32) ptr @_ZNSt7__cxx1112basic_stringIcSt11char_traitsIcESaIcEE6appendEPKcm(ptr noundef nonnull align 8 dereferenceable(32) %dst, ptr noundef nonnull %space, i64 noundef %conv)
  br label %delete.end

if.end11:                                         ; preds = %entry
  %narrow = add nuw i32 %call, 1
  %add = zext i32 %narrow to i64
  %call13 = call noalias noundef nonnull ptr @_Znam(i64 noundef %add) #33
  call void @llvm.va_copy(ptr nonnull %backup_ap, ptr %ap)
  %call16 = call i32 @vsnprintf(ptr noundef nonnull %call13, i64 noundef %add, ptr noundef %format, ptr noundef nonnull %backup_ap) #28
  call void @llvm.va_end(ptr nonnull %backup_ap)
  %cmp18 = icmp slt i32 %call16, 0
  %cmp20.not = icmp ugt i32 %call16, %call
  %or.cond = or i1 %cmp18, %cmp20.not
  br i1 %or.cond, label %delete.notnull, label %if.then21

if.then21:                                        ; preds = %if.end11
  %conv19 = zext nneg i32 %call16 to i64
  %call23 = call noundef nonnull align 8 dereferenceable(32) ptr @_ZNSt7__cxx1112basic_stringIcSt11char_traitsIcESaIcEE6appendEPKcm(ptr noundef nonnull align 8 dereferenceable(32) %dst, ptr noundef nonnull %call13, i64 noundef %conv19)
  br label %delete.notnull

delete.notnull:                                   ; preds = %if.end11, %if.then21
  call void @_ZdaPv(ptr noundef nonnull %call13) #32
  br label %delete.end

delete.end:                                       ; preds = %if.then, %delete.notnull, %if.then5
  ret void
}